target datalayout = "e-m:e-p270:32:32-p271:32:32-p272:64:64-i64:64-i128:128-f80:128-n8:16:32:64-S128"
target triple = "x86_64-unknown-linux-gnu"

@stderr = external global ptr, align 8
@.str = private unnamed_addr constant [25 x i8] c"=== ASSERTION FAILED ===\00", align 1
@.str.1 = private unnamed_addr constant [27 x i8] c"==> %s:%d '%s' is not true\00", align 1
@.str.2 = private unnamed_addr constant [49 x i8] c"------------------------------------------------\00", align 1
@.str.3 = private unnamed_addr constant [58 x i8] c"!!! Software Failure. Press left mouse button to continue\00", align 1
@.str.4 = private unnamed_addr constant [27 x i8] c"Guru Meditation: %s #%s:%d\00", align 1

; Function Attrs: nounwind uwtable
define dso_local void @_serverAssert(ptr noundef %estr, ptr noundef %file, i32 noundef %line) #0 {
entry:
  %estr.addr = alloca ptr, align 8
  %file.addr = alloca ptr, align 8
  %line.addr = alloca i32, align 4
  store ptr %estr, ptr %estr.addr, align 8
  store ptr %file, ptr %file.addr, align 8
  store i32 %line, ptr %line.addr, align 4
  %0 = load ptr, ptr @stderr, align 8
  %call = call i32 (ptr, ptr, ...) @fprintf(ptr noundef %0, ptr noundef @.str) #3
  %1 = load ptr, ptr @stderr, align 8
  %2 = load ptr, ptr %file.addr, align 8
  %3 = load i32, ptr %line.addr, align 4
  %4 = load ptr, ptr %estr.addr, align 8
  %call1 = call i32 (ptr, ptr, ...) @fprintf(ptr noundef %1, ptr noundef @.str.1, ptr noundef %2, i32 noundef %3, ptr noundef %4) #3
  %call2 = call i32 @raise(i32 noundef 11) #3
  ret void
}

; Function Attrs: nounwind
declare i32 @fprintf(ptr noundef, ptr noundef, ...) #1

; Function Attrs: nounwind
declare i32 @raise(i32 noundef) #1

; Function Attrs: nounwind uwtable
define dso_local void @_serverPanic(ptr noundef %file, i32 noundef %line, ptr noundef %msg, ...) #0 {
entry:
  %file.addr = alloca ptr, align 8
  %line.addr = alloca i32, align 4
  %msg.addr = alloca ptr, align 8
  store ptr %file, ptr %file.addr, align 8
  store i32 %line, ptr %line.addr, align 4
  store ptr %msg, ptr %msg.addr, align 8
  %0 = load ptr, ptr @stderr, align 8
  %call = call i32 (ptr, ptr, ...) @fprintf(ptr noundef %0, ptr noundef @.str.2) #3
  %1 = load ptr, ptr @stderr, align 8
  %call1 = call i32 (ptr, ptr, ...) @fprintf(ptr noundef %1, ptr noundef @.str.3) #3
  %2 = load ptr, ptr @stderr, align 8
  %3 = load ptr, ptr %msg.addr, align 8
  %4 = load ptr, ptr %file.addr, align 8
  %5 = load i32, ptr %line.addr, align 4
  %call2 = call i32 (ptr, ptr, ...) @fprintf(ptr noundef %2, ptr noundef @.str.4, ptr noundef %3, ptr noundef %4, i32 noundef %5) #3
  call void @abort() #4
  unreachable
}

; Function Attrs: noreturn nounwind
declare void @abort() #2


!llvm.module.flags = !{!0, !1, !2, !3, !4}

!0 = !{i32 1, !"wchar_size", i32 4}
!1 = !{i32 8, !"PIC Level", i32 2}
!2 = !{i32 7, !"PIE Level", i32 2}
!3 = !{i32 7, !"uwtable", i32 2}
!4 = !{i32 7, !"frame-pointer", i32 2}
