; ModuleID = 'bench/redis/original/redisassert.ll'
source_filename = "bench/redis/original/redisassert.ll"
target datalayout = "e-m:e-p270:32:32-p271:32:32-p272:64:64-i64:64-i128:128-f80:128-n8:16:32:64-S128"
target triple = "x86_64-unknown-linux-gnu"

@stderr = external local_unnamed_addr global ptr, align 8
@.str = private unnamed_addr constant [25 x i8] c"=== ASSERTION FAILED ===\00", align 1
@.str.1 = private unnamed_addr constant [27 x i8] c"==> %s:%d '%s' is not true\00", align 1
@.str.2 = private unnamed_addr constant [49 x i8] c"------------------------------------------------\00", align 1
@.str.3 = private unnamed_addr constant [58 x i8] c"!!! Software Failure. Press left mouse button to continue\00", align 1
@.str.4 = private unnamed_addr constant [27 x i8] c"Guru Meditation: %s #%s:%d\00", align 1

; Function Attrs: nounwind uwtable
define dso_local void @_serverAssert(ptr noundef %estr, ptr noundef %file, i32 noundef %line) local_unnamed_addr #0 {
entry:
  %0 = load ptr, ptr @stderr, align 8
  %1 = tail call i64 @fwrite(ptr nonnull @.str, i64 24, i64 1, ptr %0) #6
  %2 = load ptr, ptr @stderr, align 8
  %call1 = tail call i32 (ptr, ptr, ...) @fprintf(ptr noundef %2, ptr noundef nonnull @.str.1, ptr noundef %file, i32 noundef %line, ptr noundef %estr) #7
  %call2 = tail call i32 @raise(i32 noundef 11) #8
  ret void
}

; Function Attrs: nofree nounwind
declare noundef i32 @fprintf(ptr nocapture noundef, ptr nocapture noundef readonly, ...) local_unnamed_addr #1

; Function Attrs: nounwind
declare i32 @raise(i32 noundef) local_unnamed_addr #2

; Function Attrs: noreturn nounwind uwtable
define dso_local void @_serverPanic(ptr noundef %file, i32 noundef %line, ptr noundef %msg, ...) local_unnamed_addr #3 {
entry:
  %0 = load ptr, ptr @stderr, align 8
  %1 = tail call i64 @fwrite(ptr nonnull @.str.2, i64 48, i64 1, ptr %0) #6
  %2 = load ptr, ptr @stderr, align 8
  %3 = tail call i64 @fwrite(ptr nonnull @.str.3, i64 57, i64 1, ptr %2) #6
  %4 = load ptr, ptr @stderr, align 8
  %call2 = tail call i32 (ptr, ptr, ...) @fprintf(ptr noundef %4, ptr noundef nonnull @.str.4, ptr noundef %msg, ptr noundef %file, i32 noundef %line) #7
  tail call void @abort() #9
  unreachable
}

; Function Attrs: noreturn nounwind
declare void @abort() local_unnamed_addr #4

; Function Attrs: nofree nounwind
declare noundef i64 @fwrite(ptr nocapture noundef, i64 noundef, i64 noundef, ptr nocapture noundef) local_unnamed_addr #5


!llvm.module.flags = !{!0, !1, !2, !3, !4}

!0 = !{i32 1, !"wchar_size", i32 4}
!1 = !{i32 8, !"PIC Level", i32 2}
!2 = !{i32 7, !"PIE Level", i32 2}
!3 = !{i32 7, !"uwtable", i32 2}
!4 = !{i32 7, !"frame-pointer", i32 2}
